target datalayout = "e-m:e-p270:32:32-p271:32:32-p272:64:64-i64:64-i128:128-f80:128-n8:16:32:64-S128"
target triple = "x86_64-pc-linux-gnu"

%struct.rb_data_type_struct = type { ptr, %struct.anon.12, ptr, ptr, i64 }
%struct.anon.12 = type { ptr, ptr, ptr, ptr, [1 x ptr] }
%struct.rb_code_location_struct = type { %struct.rb_code_position_struct, %struct.rb_code_position_struct }
%struct.rb_code_position_struct = type { i32, i32 }
%struct.ASTNodeData = type { i64, ptr }
%struct.RNode = type { i64, %struct.rb_code_location_struct, i32 }
%struct.RTypedData = type { %struct.RBasic, ptr, i64, ptr }
%struct.RBasic = type { i64, i64 }
%struct.RNode_LIST = type { %struct.RNode, ptr, %union.anon.26, ptr }
%union.anon.26 = type { i64 }

@rb_cNode = internal global i64 0, align 8
@rb_node_type = internal constant %struct.rb_data_type_struct { ptr @.str.24, %struct.anon.12 { ptr @node_gc_mark, ptr inttoptr (i64 -1 to ptr), ptr @node_memsize, ptr null, [1 x ptr] zeroinitializer }, ptr null, ptr null, i64 1 }, align 8

; Function Attrs: inlinehint nounwind sspstrong uwtable
define internal zeroext i1 @RTYPEDDATA_EMBEDDED_P(i64 noundef %0) #5 {
  %2 = alloca i64, align 8
  store i64 %0, ptr %2, align 8, !tbaa !12
  %3 = load i64, ptr %2, align 8, !tbaa !12
  %4 = inttoptr i64 %3 to ptr
  %5 = getelementptr inbounds nuw %struct.RTypedData, ptr %4, i32 0, i32 2
  %6 = load i64, ptr %5, align 8, !tbaa !114
  %7 = and i64 %6, 2
  %8 = icmp ne i64 %7, 0
  ret i1 %8
}

; Function Attrs: inlinehint nounwind sspstrong uwtable
define internal ptr @RTYPEDDATA_GET_DATA(i64 noundef %0) #5 {
  %2 = alloca i64, align 8
  %3 = alloca i64, align 8
  store i64 %0, ptr %2, align 8, !tbaa !12
  call void @llvm.lifetime.start.p0(i64 8, ptr %3) #16
  store i64 32, ptr %3, align 8, !tbaa !12
  %4 = load i64, ptr %2, align 8, !tbaa !12
  %5 = call zeroext i1 @RTYPEDDATA_EMBEDDED_P(i64 noundef %4)
  br i1 %5, label %6, label %10

6:                                                ; preds = %1
  %7 = load i64, ptr %2, align 8, !tbaa !12
  %8 = inttoptr i64 %7 to ptr
  %9 = getelementptr i8, ptr %8, i64 32
  br label %15

10:                                               ; preds = %1
  %11 = load i64, ptr %2, align 8, !tbaa !12
  %12 = inttoptr i64 %11 to ptr
  %13 = getelementptr inbounds nuw %struct.RTypedData, ptr %12, i32 0, i32 3
  %14 = load ptr, ptr %13, align 8, !tbaa !110
  br label %15

15:                                               ; preds = %10, %6
  %16 = phi ptr [ %9, %6 ], [ %14, %10 ]
  call void @llvm.lifetime.end.p0(i64 8, ptr %3) #16
  ret ptr %16
}

; Function Attrs: nounwind sspstrong uwtable
define internal void @setup_node(i64 noundef %0, i64 noundef %1, ptr noundef %2) #0 {
  %4 = alloca i64, align 8
  %5 = alloca i64, align 8
  %6 = alloca ptr, align 8
  %7 = alloca ptr, align 8
  store i64 %0, ptr %4, align 8, !tbaa !12
  store i64 %1, ptr %5, align 8, !tbaa !12
  store ptr %2, ptr %6, align 8, !tbaa !109
  call void @llvm.lifetime.start.p0(i64 8, ptr %7) #16
  %8 = load i64, ptr %4, align 8, !tbaa !12
  %9 = call ptr @rb_check_typeddata(i64 noundef %8, ptr noundef @rb_node_type)
  store ptr %9, ptr %7, align 8, !tbaa !44
  %10 = load i64, ptr %5, align 8, !tbaa !12
  %11 = load ptr, ptr %7, align 8, !tbaa !44
  %12 = getelementptr inbounds nuw %struct.ASTNodeData, ptr %11, i32 0, i32 0
  store i64 %10, ptr %12, align 8, !tbaa !54
  %13 = load ptr, ptr %6, align 8, !tbaa !109
  %14 = load ptr, ptr %7, align 8, !tbaa !44
  %15 = getelementptr inbounds nuw %struct.ASTNodeData, ptr %14, i32 0, i32 1
  store ptr %13, ptr %15, align 8, !tbaa !46
  call void @llvm.lifetime.end.p0(i64 8, ptr %7) #16
  ret void
}

; Function Attrs: nounwind sspstrong uwtable
define internal i64 @rb_ast_node_alloc(i64 noundef %0) #0 {
  %2 = alloca i64, align 8
  %3 = alloca ptr, align 8
  %4 = alloca i64, align 8
  %5 = alloca i64, align 8
  %6 = alloca i64, align 8
  store i64 %0, ptr %2, align 8, !tbaa !12
  call void @llvm.lifetime.start.p0(i64 8, ptr %3) #16
  call void @llvm.lifetime.start.p0(i64 8, ptr %4) #16
  call void @llvm.lifetime.start.p0(i64 8, ptr %5) #16
  %7 = load i64, ptr %2, align 8, !tbaa !12
  %8 = call i64 @rb_data_typed_object_zalloc(i64 noundef %7, i64 noundef 16, ptr noundef @rb_node_type)
  store i64 %8, ptr %5, align 8, !tbaa !12
  %9 = load i64, ptr %5, align 8, !tbaa !12
  %10 = call ptr @RTYPEDDATA_GET_DATA(i64 noundef %9)
  store ptr %10, ptr %3, align 8, !tbaa !44
  %11 = load i64, ptr %5, align 8, !tbaa !12
  store i64 %11, ptr %6, align 8, !tbaa !12
  call void @llvm.lifetime.end.p0(i64 8, ptr %5) #16
  %12 = load i64, ptr %6, align 8, !tbaa !12
  store i64 %12, ptr %4, align 8, !tbaa !12
  %13 = load i64, ptr %4, align 8, !tbaa !12
  call void @llvm.lifetime.end.p0(i64 8, ptr %4) #16
  call void @llvm.lifetime.end.p0(i64 8, ptr %3) #16
  ret i64 %13
}

; Function Attrs: inlinehint nounwind sspstrong uwtable
define internal zeroext i1 @nd_type_p(ptr noundef %0, i32 noundef %1) #5 {
  %3 = alloca ptr, align 8
  %4 = alloca i32, align 4
  store ptr %0, ptr %3, align 8, !tbaa !109
  store i32 %1, ptr %4, align 4, !tbaa !16
  %5 = load ptr, ptr %3, align 8, !tbaa !109
  %6 = getelementptr inbounds nuw %struct.RNode, ptr %5, i32 0, i32 0
  %7 = load i64, ptr %6, align 8, !tbaa !129
  %8 = and i64 %7, 32512
  %9 = lshr i64 %8, 8
  %10 = trunc i64 %9 to i32
  %11 = load i32, ptr %4, align 4, !tbaa !16
  %12 = icmp eq i32 %10, %11
  ret i1 %12
}

; Function Attrs: nounwind sspstrong uwtable
define internal i64 @ast_new_internal(i64 noundef %0, ptr noundef %1) #0 {
  %3 = alloca i64, align 8
  %4 = alloca ptr, align 8
  %5 = alloca i64, align 8
  store i64 %0, ptr %3, align 8, !tbaa !12
  store ptr %1, ptr %4, align 8, !tbaa !109
  call void @llvm.lifetime.start.p0(i64 8, ptr %5) #16
  %6 = load i64, ptr @rb_cNode, align 8, !tbaa !12
  %7 = call i64 @rb_ast_node_alloc(i64 noundef %6)
  store i64 %7, ptr %5, align 8, !tbaa !12
  %8 = load i64, ptr %5, align 8, !tbaa !12
  %9 = load i64, ptr %3, align 8, !tbaa !12
  %10 = load ptr, ptr %4, align 8, !tbaa !109
  call void @setup_node(i64 noundef %8, i64 noundef %9, ptr noundef %10)
  %11 = load i64, ptr %5, align 8, !tbaa !12
  call void @llvm.lifetime.end.p0(i64 8, ptr %5) #16
  ret i64 %11
}

; Function Attrs: nounwind sspstrong uwtable
define internal i64 @dump_array(i64 noundef %0, ptr noundef %1) #0 {
  %3 = alloca i64, align 8
  %4 = alloca ptr, align 8
  %5 = alloca i64, align 8
  store i64 %0, ptr %3, align 8, !tbaa !12
  store ptr %1, ptr %4, align 8, !tbaa !282
  call void @llvm.lifetime.start.p0(i64 8, ptr %5) #16
  %6 = call i64 @rb_ary_new()
  store i64 %6, ptr %5, align 8, !tbaa !12
  %7 = load i64, ptr %5, align 8, !tbaa !12
  %8 = load ptr, ptr %4, align 8, !tbaa !282
  %9 = getelementptr inbounds nuw %struct.RNode_LIST, ptr %8, i32 0, i32 1
  %10 = load ptr, ptr %9, align 8, !tbaa !283
  %11 = icmp ne ptr %10, null
  br i1 %11, label %12, label %18

12:                                               ; preds = %2
  %13 = load i64, ptr %3, align 8, !tbaa !12
  %14 = load ptr, ptr %4, align 8, !tbaa !282
  %15 = getelementptr inbounds nuw %struct.RNode_LIST, ptr %14, i32 0, i32 1
  %16 = load ptr, ptr %15, align 8, !tbaa !283
  %17 = call i64 @ast_new_internal(i64 noundef %13, ptr noundef %16)
  br label %19

18:                                               ; preds = %2
  br label %19

19:                                               ; preds = %18, %12
  %20 = phi i64 [ %17, %12 ], [ 4, %18 ]
  %21 = call i64 @rb_ary_push(i64 noundef %7, i64 noundef %20)
  br label %22

22:                                               ; preds = %50, %19
  %23 = load ptr, ptr %4, align 8, !tbaa !282
  %24 = getelementptr inbounds nuw %struct.RNode_LIST, ptr %23, i32 0, i32 3
  %25 = load ptr, ptr %24, align 8, !tbaa !285
  %26 = icmp ne ptr %25, null
  br i1 %26, label %27, label %32

27:                                               ; preds = %22
  %28 = load ptr, ptr %4, align 8, !tbaa !282
  %29 = getelementptr inbounds nuw %struct.RNode_LIST, ptr %28, i32 0, i32 3
  %30 = load ptr, ptr %29, align 8, !tbaa !285
  %31 = call zeroext i1 @nd_type_p(ptr noundef %30, i32 noundef 43)
  br label %32

32:                                               ; preds = %27, %22
  %33 = phi i1 [ false, %22 ], [ %31, %27 ]
  br i1 %33, label %34, label %53

34:                                               ; preds = %32
  %35 = load ptr, ptr %4, align 8, !tbaa !282
  %36 = getelementptr inbounds nuw %struct.RNode_LIST, ptr %35, i32 0, i32 3
  %37 = load ptr, ptr %36, align 8, !tbaa !285
  store ptr %37, ptr %4, align 8, !tbaa !282
  %38 = load i64, ptr %5, align 8, !tbaa !12
  %39 = load ptr, ptr %4, align 8, !tbaa !282
  %40 = getelementptr inbounds nuw %struct.RNode_LIST, ptr %39, i32 0, i32 1
  %41 = load ptr, ptr %40, align 8, !tbaa !283
  %42 = icmp ne ptr %41, null
  br i1 %42, label %43, label %49

43:                                               ; preds = %34
  %44 = load i64, ptr %3, align 8, !tbaa !12
  %45 = load ptr, ptr %4, align 8, !tbaa !282
  %46 = getelementptr inbounds nuw %struct.RNode_LIST, ptr %45, i32 0, i32 1
  %47 = load ptr, ptr %46, align 8, !tbaa !283
  %48 = call i64 @ast_new_internal(i64 noundef %44, ptr noundef %47)
  br label %50

49:                                               ; preds = %34
  br label %50

50:                                               ; preds = %49, %43
  %51 = phi i64 [ %48, %43 ], [ 4, %49 ]
  %52 = call i64 @rb_ary_push(i64 noundef %38, i64 noundef %51)
  br label %22, !llvm.loop !393

53:                                               ; preds = %32
  %54 = load i64, ptr %5, align 8, !tbaa !12
  %55 = load ptr, ptr %4, align 8, !tbaa !282
  %56 = getelementptr inbounds nuw %struct.RNode_LIST, ptr %55, i32 0, i32 3
  %57 = load ptr, ptr %56, align 8, !tbaa !285
  %58 = icmp ne ptr %57, null
  br i1 %58, label %59, label %65

59:                                               ; preds = %53
  %60 = load i64, ptr %3, align 8, !tbaa !12
  %61 = load ptr, ptr %4, align 8, !tbaa !282
  %62 = getelementptr inbounds nuw %struct.RNode_LIST, ptr %61, i32 0, i32 3
  %63 = load ptr, ptr %62, align 8, !tbaa !285
  %64 = call i64 @ast_new_internal(i64 noundef %60, ptr noundef %63)
  br label %66

65:                                               ; preds = %53
  br label %66

66:                                               ; preds = %65, %59
  %67 = phi i64 [ %64, %59 ], [ 4, %65 ]
  %68 = call i64 @rb_ary_push(i64 noundef %54, i64 noundef %67)
  %69 = load i64, ptr %5, align 8, !tbaa !12
  call void @llvm.lifetime.end.p0(i64 8, ptr %5) #16
  ret i64 %69
}