; Function Attrs: nounwind sspstrong uwtable
define internal fastcc i64 @dump_array(i64 noundef %0, ptr noundef readonly captures(none) %1) unnamed_addr #0 {
  %3 = tail call i64 @rb_ary_new() #11
  %4 = getelementptr inbounds nuw i8, ptr %1, i64 32
  %5 = load ptr, ptr %4, align 8, !tbaa !266
  %.not = icmp eq ptr %5, null
  br i1 %.not, label %11, label %6

6:                                                ; preds = %2
  %7 = load i64, ptr @rb_cNode, align 8, !tbaa !47
  %8 = tail call i64 @rb_data_typed_object_zalloc(i64 noundef %7, i64 noundef 16, ptr noundef nonnull @rb_node_type) #11
  %9 = tail call ptr @rb_check_typeddata(i64 noundef %8, ptr noundef nonnull @rb_node_type) #11
  store i64 %0, ptr %9, align 8, !tbaa !70
  %10 = getelementptr inbounds nuw i8, ptr %9, i64 8
  store ptr %5, ptr %10, align 8, !tbaa !72
  br label %11

11:                                               ; preds = %2, %6
  %12 = phi i64 [ %8, %6 ], [ 4, %2 ]
  %13 = tail call i64 @rb_ary_push(i64 noundef %3, i64 noundef %12) #11
  %14 = getelementptr inbounds nuw i8, ptr %1, i64 48
  %15 = load ptr, ptr %14, align 8, !tbaa !268
  %.not1923 = icmp eq ptr %15, null
  br i1 %.not1923, label %.critedge.thread, label %.lr.ph

.lr.ph:                                           ; preds = %11, %27
  %16 = phi ptr [ %31, %27 ], [ %15, %11 ]
  %.val = load i64, ptr %16, align 8, !tbaa !73
  %17 = and i64 %.val, 32512
  %18 = icmp eq i64 %17, 11008
  br i1 %18, label %19, label %.critedge

19:                                               ; preds = %.lr.ph
  %20 = getelementptr inbounds nuw i8, ptr %16, i64 32
  %21 = load ptr, ptr %20, align 8, !tbaa !266
  %.not21 = icmp eq ptr %21, null
  br i1 %.not21, label %27, label %22

22:                                               ; preds = %19
  %23 = load i64, ptr @rb_cNode, align 8, !tbaa !47
  %24 = tail call i64 @rb_data_typed_object_zalloc(i64 noundef %23, i64 noundef 16, ptr noundef nonnull @rb_node_type) #11
  %25 = tail call ptr @rb_check_typeddata(i64 noundef %24, ptr noundef nonnull @rb_node_type) #11
  store i64 %0, ptr %25, align 8, !tbaa !70
  %26 = getelementptr inbounds nuw i8, ptr %25, i64 8
  store ptr %21, ptr %26, align 8, !tbaa !72
  br label %27

27:                                               ; preds = %19, %22
  %28 = phi i64 [ %24, %22 ], [ 4, %19 ]
  %29 = tail call i64 @rb_ary_push(i64 noundef %3, i64 noundef %28) #11
  %30 = getelementptr inbounds nuw i8, ptr %16, i64 48
  %31 = load ptr, ptr %30, align 8, !tbaa !268
  %.not19 = icmp eq ptr %31, null
  br i1 %.not19, label %.critedge.thread, label %.lr.ph, !llvm.loop !373

.critedge:                                        ; preds = %.lr.ph
  %32 = load i64, ptr @rb_cNode, align 8, !tbaa !47
  %33 = tail call i64 @rb_data_typed_object_zalloc(i64 noundef %32, i64 noundef 16, ptr noundef nonnull @rb_node_type) #11
  %34 = tail call ptr @rb_check_typeddata(i64 noundef %33, ptr noundef nonnull @rb_node_type) #11
  store i64 %0, ptr %34, align 8, !tbaa !70
  %35 = getelementptr inbounds nuw i8, ptr %34, i64 8
  store ptr %16, ptr %35, align 8, !tbaa !72
  br label %.critedge.thread

.critedge.thread:                                 ; preds = %27, %11, %.critedge
  %36 = phi i64 [ %33, %.critedge ], [ 4, %11 ], [ 4, %27 ]
  %37 = tail call i64 @rb_ary_push(i64 noundef %3, i64 noundef %36) #11
  ret i64 %3
}